target datalayout = "e-m:e-p270:32:32-p271:32:32-p272:64:64-i64:64-i128:128-f80:128-n8:16:32:64-S128"
target triple = "x86_64-pc-linux-gnu"

%"class.llvm::SHA256" = type { %struct.anon }
%struct.anon = type { %union.anon, [8 x i32], i32, i8 }
%union.anon = type { [16 x i32] }
%"struct.std::array" = type { [8 x i32] }
%"struct.std::array.0" = type { [32 x i8] }
%union.anon.1 = type { %"struct.std::array" }

; Function Attrs: mustprogress nounwind uwtable
define linkonce_odr hidden noundef nonnull align 4 dereferenceable(4) ptr @_ZNSt14__array_traitsIjLm8EE6_S_refERA8_Kjm(ptr noundef nonnull align 4 dereferenceable(32) %0, i64 noundef %1) #0 comdat align 2 {
  %3 = alloca ptr, align 8
  %4 = alloca i64, align 8
  store ptr %0, ptr %3, align 8
  store i64 %1, ptr %4, align 8
  %5 = load ptr, ptr %3, align 8
  %6 = load i64, ptr %4, align 8
  %7 = getelementptr inbounds [8 x i32], ptr %5, i64 0, i64 %6
  ret ptr %7
}

; Function Attrs: mustprogress nounwind uwtable
define linkonce_odr hidden noundef nonnull align 4 dereferenceable(4) ptr @_ZNSt5arrayIjLm8EEixEm(ptr noundef nonnull align 4 dereferenceable(32) %0, i64 noundef %1) #0 comdat align 2 {
  %3 = alloca ptr, align 8
  %4 = alloca i64, align 8
  store ptr %0, ptr %3, align 8
  store i64 %1, ptr %4, align 8
  %5 = load ptr, ptr %3, align 8
  %6 = getelementptr inbounds nuw %"struct.std::array", ptr %5, i32 0, i32 0
  %7 = load i64, ptr %4, align 8
  %8 = call noundef nonnull align 4 dereferenceable(4) ptr @_ZNSt14__array_traitsIjLm8EE6_S_refERA8_Kjm(ptr noundef nonnull align 4 dereferenceable(32) %6, i64 noundef %7) #4
  ret ptr %8
}

; Function Attrs: mustprogress nounwind uwtable
define linkonce_odr hidden noundef i32 @_ZN4llvm8byteswapIjvEET_S1_(i32 noundef %0) #0 comdat {
  %2 = alloca i32, align 4
  %3 = alloca i32, align 4
  store i32 %0, ptr %2, align 4
  %4 = load i32, ptr %2, align 4
  store i32 %4, ptr %3, align 4
  %5 = load i32, ptr %3, align 4
  %6 = call i32 @llvm.bswap.i32(i32 %5)
  ret i32 %6
}

; Function Attrs: mustprogress nounwind uwtable
define dso_local void @_ZN4llvm6SHA2565finalERSt5arrayIjLm8EE(ptr noundef nonnull align 4 dereferenceable(104) %0, ptr noundef nonnull align 4 dereferenceable(32) %1) #0 align 2 {
  %3 = alloca ptr, align 8
  %4 = alloca ptr, align 8
  %5 = alloca i32, align 4
  store ptr %0, ptr %3, align 8
  store ptr %1, ptr %4, align 8
  %6 = load ptr, ptr %3, align 8
  call void @_ZN4llvm6SHA2563padEv(ptr noundef nonnull align 4 dereferenceable(104) %6)
  store i32 0, ptr %5, align 4
  br label %7

7:                                                ; preds = %22, %2
  %8 = load i32, ptr %5, align 4
  %9 = icmp slt i32 %8, 8
  br i1 %9, label %10, label %25

10:                                               ; preds = %7
  %11 = getelementptr inbounds nuw %"class.llvm::SHA256", ptr %6, i32 0, i32 0
  %12 = getelementptr inbounds nuw %struct.anon, ptr %11, i32 0, i32 1
  %13 = load i32, ptr %5, align 4
  %14 = sext i32 %13 to i64
  %15 = getelementptr inbounds [8 x i32], ptr %12, i64 0, i64 %14
  %16 = load i32, ptr %15, align 4
  %17 = call noundef i32 @_ZN4llvm8byteswapIjvEET_S1_(i32 noundef %16) #4
  %18 = load ptr, ptr %4, align 8
  %19 = load i32, ptr %5, align 4
  %20 = sext i32 %19 to i64
  %21 = call noundef nonnull align 4 dereferenceable(4) ptr @_ZNSt5arrayIjLm8EEixEm(ptr noundef nonnull align 4 dereferenceable(32) %18, i64 noundef %20) #4
  store i32 %17, ptr %21, align 4
  br label %22

22:                                               ; preds = %10
  %23 = load i32, ptr %5, align 4
  %24 = add nsw i32 %23, 1
  store i32 %24, ptr %5, align 4
  br label %7, !llvm.loop !9

25:                                               ; preds = %7
  ret void
}

; Function Attrs: mustprogress nounwind uwtable
define dso_local void @_ZN4llvm6SHA2565finalEv(ptr dead_on_unwind noalias writable sret(%"struct.std::array.0") align 1 %0, ptr noundef nonnull align 4 dereferenceable(104) %1) #0 align 2 {
  %3 = alloca ptr, align 8
  %4 = alloca %union.anon.1, align 4
  store ptr %1, ptr %3, align 8
  %5 = load ptr, ptr %3, align 8
  call void @_ZN4llvm6SHA2565finalERSt5arrayIjLm8EE(ptr noundef nonnull align 4 dereferenceable(104) %5, ptr noundef nonnull align 4 dereferenceable(32) %4)
  call void @llvm.memcpy.p0.p0.i64(ptr align 1 %0, ptr align 4 %4, i64 32, i1 false)
  ret void
}