; Function Attrs: mustprogress nofree norecurse nosync nounwind memory(argmem: readwrite) uwtable
define dso_local void @_ZN4llvm6SHA2565finalEv(ptr dead_on_unwind noalias nocapture writable writeonly sret(%"struct.std::array.0") align 1 %0, ptr nocapture noundef nonnull align 4 dereferenceable(104) %1) local_unnamed_addr #4 align 2 {
  %3 = alloca %union.anon.1, align 4
  tail call void @_ZN4llvm6SHA2563padEv(ptr noundef nonnull align 4 dereferenceable(104) %1)
  %4 = getelementptr inbounds nuw i8, ptr %1, i64 64
  br label %5

5:                                                ; preds = %5, %2
  %indvars.iv.i = phi i64 [ 0, %2 ], [ %indvars.iv.next.i, %5 ]
  %6 = getelementptr inbounds [8 x i32], ptr %4, i64 0, i64 %indvars.iv.i
  %7 = load i32, ptr %6, align 4
  %8 = tail call noundef i32 @llvm.bswap.i32(i32 %7)
  %9 = getelementptr inbounds [8 x i32], ptr %3, i64 0, i64 %indvars.iv.i
  store i32 %8, ptr %9, align 4
  %indvars.iv.next.i = add nuw nsw i64 %indvars.iv.i, 1
  %exitcond.not.i = icmp eq i64 %indvars.iv.next.i, 8
  br i1 %exitcond.not.i, label %_ZN4llvm6SHA2565finalERSt5arrayIjLm8EE.exit, label %5, !llvm.loop !9

_ZN4llvm6SHA2565finalERSt5arrayIjLm8EE.exit:      ; preds = %5
  call void @llvm.memcpy.p0.p0.i64(ptr noundef nonnull align 1 dereferenceable(32) %0, ptr noundef nonnull align 4 dereferenceable(32) %3, i64 32, i1 false)
  ret void
}